target datalayout = "e-m:e-p270:32:32-p271:32:32-p272:64:64-i64:64-i128:128-f80:128-n8:16:32:64-S128"
target triple = "x86_64-pc-linux-gnu"

; Function Attrs: mustprogress nounwind uwtable
define internal noundef i32 @_ZN2cv12cpu_baselineL13countNonZero_IfEEiPKT_i(ptr noundef %0, i32 noundef %1) #0 {
  %3 = alloca ptr, align 8
  %4 = alloca i32, align 4
  %5 = alloca i32, align 4
  %6 = alloca i32, align 4
  store ptr %0, ptr %3, align 8
  store i32 %1, ptr %4, align 4
  store i32 0, ptr %5, align 4
  store i32 0, ptr %6, align 4
  br label %7

7:                                                ; preds = %21, %2
  %8 = load i32, ptr %5, align 4
  %9 = load i32, ptr %4, align 4
  %10 = icmp slt i32 %8, %9
  br i1 %10, label %11, label %24

11:                                               ; preds = %7
  %12 = load ptr, ptr %3, align 8
  %13 = load i32, ptr %5, align 4
  %14 = sext i32 %13 to i64
  %15 = getelementptr inbounds float, ptr %12, i64 %14
  %16 = load float, ptr %15, align 4
  %17 = fcmp une float %16, 0.000000e+00
  %18 = zext i1 %17 to i32
  %19 = load i32, ptr %6, align 4
  %20 = add nsw i32 %19, %18
  store i32 %20, ptr %6, align 4
  br label %21

21:                                               ; preds = %11
  %22 = load i32, ptr %5, align 4
  %23 = add nsw i32 %22, 1
  store i32 %23, ptr %5, align 4
  br label %7, !llvm.loop !16

24:                                               ; preds = %7
  %25 = load i32, ptr %6, align 4
  ret i32 %25
}

; Function Attrs: mustprogress uwtable
define internal noundef i32 @_ZN2cv12cpu_baselineL15countNonZero32fEPKfi(ptr noundef %0, i32 noundef %1) #1 {
  %3 = alloca ptr, align 8
  %4 = alloca i32, align 4
  %5 = alloca i32, align 4
  %6 = alloca i32, align 4
  store ptr %0, ptr %3, align 8
  store i32 %1, ptr %4, align 4
  store i32 0, ptr %5, align 4
  store i32 0, ptr %6, align 4
  %7 = load i32, ptr %6, align 4
  %8 = load ptr, ptr %3, align 8
  %9 = load i32, ptr %5, align 4
  %10 = sext i32 %9 to i64
  %11 = getelementptr inbounds float, ptr %8, i64 %10
  %12 = load i32, ptr %4, align 4
  %13 = load i32, ptr %5, align 4
  %14 = sub nsw i32 %12, %13
  %15 = call noundef i32 @_ZN2cv12cpu_baselineL13countNonZero_IfEEiPKT_i(ptr noundef %11, i32 noundef %14)
  %16 = add nsw i32 %7, %15
  ret i32 %16
}